#include <math.h>
#include <stdio.h>
#include <stdlib.h>
#include <string.h>



int main(int argc, char* argv[])
{
	int n,i,k;
	char string[81];
	char *p;

	scanf("%d",&n);
	getchar();
	for(k=1;k<=n;k++){
	gets(string);
	p=string;
	if((*p=='_')||(*p>='a'&&*p<='z')||(*p>='A'&&*p<='Z'))
	{
		for(i=0;*(p+i)!='\0';i++)
		{
			if((*(p+i)=='_')||(*(p+i)>='a'&&*(p+i)<='z')||(*(p+i)>='A'&&*(p+i)<='Z')||(*(p+i)>='0'&&*(p+i)<='9'));
			else
			{
			printf("0\n");
			break;}
		}
		if(*(p+i)=='\0')
			printf("1\n");
	}
	else 
		printf("0\n");}
	return 0;
}
