; ModuleID = '58/1032.c'
source_filename = "58/1032.c"
target datalayout = "e-m:e-p270:32:32-p271:32:32-p272:64:64-i64:64-f80:128-n8:16:32:64-S128"
target triple = "x86_64-pc-linux-gnu"

@.str = private unnamed_addr constant [3 x i8] c"%d\00", align 1
@.str.1 = private unnamed_addr constant [3 x i8] c"0\0A\00", align 1
@.str.2 = private unnamed_addr constant [3 x i8] c"1\0A\00", align 1

; Function Attrs: noinline nounwind uwtable
define dso_local i32 @main(i32 %0, i8** %1) #0 {
  %3 = alloca i32, align 4
  %4 = alloca i32, align 4
  %5 = alloca i8**, align 8
  %6 = alloca i32, align 4
  %7 = alloca i32, align 4
  %8 = alloca i32, align 4
  %9 = alloca [81 x i8], align 16
  %10 = alloca i8*, align 8
  store i32 0, i32* %3, align 4
  store i32 %0, i32* %4, align 4
  store i8** %1, i8*** %5, align 8
  %11 = call i32 (i8*, ...) @__isoc99_scanf(i8* getelementptr inbounds ([3 x i8], [3 x i8]* @.str, i64 0, i64 0), i32* %6)
  %12 = call i32 @getchar()
  store i32 1, i32* %8, align 4
  br label %13

13:                                               ; preds = %131, %2
  %14 = load i32, i32* %8, align 4
  %15 = load i32, i32* %6, align 4
  %16 = icmp sle i32 %14, %15
  br i1 %16, label %17, label %134

17:                                               ; preds = %13
  %18 = getelementptr inbounds [81 x i8], [81 x i8]* %9, i64 0, i64 0
  %19 = call i32 (i8*, ...) bitcast (i32 (...)* @gets to i32 (i8*, ...)*)(i8* %18)
  %20 = getelementptr inbounds [81 x i8], [81 x i8]* %9, i64 0, i64 0
  store i8* %20, i8** %10, align 8
  %21 = load i8*, i8** %10, align 8
  %22 = load i8, i8* %21, align 1
  %23 = sext i8 %22 to i32
  %24 = icmp eq i32 %23, 95
  br i1 %24, label %45, label %25

25:                                               ; preds = %17
  %26 = load i8*, i8** %10, align 8
  %27 = load i8, i8* %26, align 1
  %28 = sext i8 %27 to i32
  %29 = icmp sge i32 %28, 97
  br i1 %29, label %30, label %35

30:                                               ; preds = %25
  %31 = load i8*, i8** %10, align 8
  %32 = load i8, i8* %31, align 1
  %33 = sext i8 %32 to i32
  %34 = icmp sle i32 %33, 122
  br i1 %34, label %45, label %35

35:                                               ; preds = %30, %25
  %36 = load i8*, i8** %10, align 8
  %37 = load i8, i8* %36, align 1
  %38 = sext i8 %37 to i32
  %39 = icmp sge i32 %38, 65
  br i1 %39, label %40, label %128

40:                                               ; preds = %35
  %41 = load i8*, i8** %10, align 8
  %42 = load i8, i8* %41, align 1
  %43 = sext i8 %42 to i32
  %44 = icmp sle i32 %43, 90
  br i1 %44, label %45, label %128

45:                                               ; preds = %40, %30, %17
  store i32 0, i32* %7, align 4
  br label %46

46:                                               ; preds = %114, %45
  %47 = load i8*, i8** %10, align 8
  %48 = load i32, i32* %7, align 4
  %49 = sext i32 %48 to i64
  %50 = getelementptr inbounds i8, i8* %47, i64 %49
  %51 = load i8, i8* %50, align 1
  %52 = sext i8 %51 to i32
  %53 = icmp ne i32 %52, 0
  br i1 %53, label %54, label %117

54:                                               ; preds = %46
  %55 = load i8*, i8** %10, align 8
  %56 = load i32, i32* %7, align 4
  %57 = sext i32 %56 to i64
  %58 = getelementptr inbounds i8, i8* %55, i64 %57
  %59 = load i8, i8* %58, align 1
  %60 = sext i8 %59 to i32
  %61 = icmp eq i32 %60, 95
  br i1 %61, label %110, label %62

62:                                               ; preds = %54
  %63 = load i8*, i8** %10, align 8
  %64 = load i32, i32* %7, align 4
  %65 = sext i32 %64 to i64
  %66 = getelementptr inbounds i8, i8* %63, i64 %65
  %67 = load i8, i8* %66, align 1
  %68 = sext i8 %67 to i32
  %69 = icmp sge i32 %68, 97
  br i1 %69, label %70, label %78

70:                                               ; preds = %62
  %71 = load i8*, i8** %10, align 8
  %72 = load i32, i32* %7, align 4
  %73 = sext i32 %72 to i64
  %74 = getelementptr inbounds i8, i8* %71, i64 %73
  %75 = load i8, i8* %74, align 1
  %76 = sext i8 %75 to i32
  %77 = icmp sle i32 %76, 122
  br i1 %77, label %110, label %78

78:                                               ; preds = %70, %62
  %79 = load i8*, i8** %10, align 8
  %80 = load i32, i32* %7, align 4
  %81 = sext i32 %80 to i64
  %82 = getelementptr inbounds i8, i8* %79, i64 %81
  %83 = load i8, i8* %82, align 1
  %84 = sext i8 %83 to i32
  %85 = icmp sge i32 %84, 65
  br i1 %85, label %86, label %94

86:                                               ; preds = %78
  %87 = load i8*, i8** %10, align 8
  %88 = load i32, i32* %7, align 4
  %89 = sext i32 %88 to i64
  %90 = getelementptr inbounds i8, i8* %87, i64 %89
  %91 = load i8, i8* %90, align 1
  %92 = sext i8 %91 to i32
  %93 = icmp sle i32 %92, 90
  br i1 %93, label %110, label %94

94:                                               ; preds = %86, %78
  %95 = load i8*, i8** %10, align 8
  %96 = load i32, i32* %7, align 4
  %97 = sext i32 %96 to i64
  %98 = getelementptr inbounds i8, i8* %95, i64 %97
  %99 = load i8, i8* %98, align 1
  %100 = sext i8 %99 to i32
  %101 = icmp sge i32 %100, 48
  br i1 %101, label %102, label %111

102:                                              ; preds = %94
  %103 = load i8*, i8** %10, align 8
  %104 = load i32, i32* %7, align 4
  %105 = sext i32 %104 to i64
  %106 = getelementptr inbounds i8, i8* %103, i64 %105
  %107 = load i8, i8* %106, align 1
  %108 = sext i8 %107 to i32
  %109 = icmp sle i32 %108, 57
  br i1 %109, label %110, label %111

110:                                              ; preds = %102, %86, %70, %54
  br label %113

111:                                              ; preds = %102, %94
  %112 = call i32 (i8*, ...) @printf(i8* getelementptr inbounds ([3 x i8], [3 x i8]* @.str.1, i64 0, i64 0))
  br label %117

113:                                              ; preds = %110
  br label %114

114:                                              ; preds = %113
  %115 = load i32, i32* %7, align 4
  %116 = add nsw i32 %115, 1
  store i32 %116, i32* %7, align 4
  br label %46

117:                                              ; preds = %111, %46
  %118 = load i8*, i8** %10, align 8
  %119 = load i32, i32* %7, align 4
  %120 = sext i32 %119 to i64
  %121 = getelementptr inbounds i8, i8* %118, i64 %120
  %122 = load i8, i8* %121, align 1
  %123 = sext i8 %122 to i32
  %124 = icmp eq i32 %123, 0
  br i1 %124, label %125, label %127

125:                                              ; preds = %117
  %126 = call i32 (i8*, ...) @printf(i8* getelementptr inbounds ([3 x i8], [3 x i8]* @.str.2, i64 0, i64 0))
  br label %127

127:                                              ; preds = %125, %117
  br label %130

128:                                              ; preds = %40, %35
  %129 = call i32 (i8*, ...) @printf(i8* getelementptr inbounds ([3 x i8], [3 x i8]* @.str.1, i64 0, i64 0))
  br label %130

130:                                              ; preds = %128, %127
  br label %131

131:                                              ; preds = %130
  %132 = load i32, i32* %8, align 4
  %133 = add nsw i32 %132, 1
  store i32 %133, i32* %8, align 4
  br label %13

134:                                              ; preds = %13
  ret i32 0
}

declare dso_local i32 @__isoc99_scanf(i8*, ...) #1

declare dso_local i32 @getchar() #1

declare dso_local i32 @gets(...) #1

declare dso_local i32 @printf(i8*, ...) #1


!llvm.module.flags = !{!0}
!llvm.ident = !{!1}

!0 = !{i32 1, !"wchar_size", i32 4}
!1 = !{!"clang version 10.0.0-4ubuntu1 "}
